target datalayout = "e-m:e-p270:32:32-p271:32:32-p272:64:64-i64:64-i128:128-f80:128-n8:16:32:64-S128"
target triple = "x86_64-pc-linux-gnu"

%struct.par_shapes_mesh_s = type { ptr, i32, ptr, i32, ptr, ptr }

; Function Attrs: nounwind uwtable
define hidden void @par_shapes__connect(ptr noundef %0, ptr noundef %1, i32 noundef %2) #0 {
  %4 = alloca ptr, align 8
  %5 = alloca ptr, align 8
  %6 = alloca i32, align 4
  %7 = alloca i32, align 4
  %8 = alloca i32, align 4
  %9 = alloca ptr, align 8
  %10 = alloca ptr, align 8
  %11 = alloca i32, align 4
  %12 = alloca ptr, align 8
  %13 = alloca i32, align 4
  %14 = alloca ptr, align 8
  %15 = alloca i32, align 4
  %16 = alloca i32, align 4
  %17 = alloca i32, align 4
  %18 = alloca i32, align 4
  store ptr %0, ptr %4, align 8
  store ptr %1, ptr %5, align 8
  store i32 %2, ptr %6, align 4
  call void @llvm.lifetime.start.p0(i64 4, ptr %7) #16
  store i32 1, ptr %7, align 4
  call void @llvm.lifetime.start.p0(i64 4, ptr %8) #16
  %19 = load i32, ptr %6, align 4
  %20 = add nsw i32 %19, 1
  %21 = load i32, ptr %7, align 4
  %22 = add nsw i32 %21, 1
  %23 = mul nsw i32 %20, %22
  store i32 %23, ptr %8, align 4
  %24 = load ptr, ptr %4, align 8
  %25 = getelementptr inbounds nuw %struct.par_shapes_mesh_s, ptr %24, i32 0, i32 1
  %26 = load i32, ptr %25, align 8
  %27 = load i32, ptr %6, align 4
  %28 = add nsw i32 %27, 1
  %29 = add nsw i32 %26, %28
  store i32 %29, ptr %8, align 4
  call void @llvm.lifetime.start.p0(i64 8, ptr %9) #16
  %30 = load i32, ptr %8, align 4
  %31 = mul nsw i32 %30, 3
  %32 = sext i32 %31 to i64
  %33 = mul i64 %32, 4
  %34 = call noalias ptr @malloc(i64 noundef %33) #20
  store ptr %34, ptr %9, align 8
  %35 = load ptr, ptr %9, align 8
  %36 = load ptr, ptr %4, align 8
  %37 = getelementptr inbounds nuw %struct.par_shapes_mesh_s, ptr %36, i32 0, i32 0
  %38 = load ptr, ptr %37, align 8
  %39 = load ptr, ptr %4, align 8
  %40 = getelementptr inbounds nuw %struct.par_shapes_mesh_s, ptr %39, i32 0, i32 1
  %41 = load i32, ptr %40, align 8
  %42 = sext i32 %41 to i64
  %43 = mul i64 4, %42
  %44 = mul i64 %43, 3
  call void @llvm.memcpy.p0.p0.i64(ptr align 4 %35, ptr align 4 %38, i64 %44, i1 false)
  call void @llvm.lifetime.start.p0(i64 8, ptr %10) #16
  %45 = load ptr, ptr %9, align 8
  %46 = load ptr, ptr %4, align 8
  %47 = getelementptr inbounds nuw %struct.par_shapes_mesh_s, ptr %46, i32 0, i32 1
  %48 = load i32, ptr %47, align 8
  %49 = mul nsw i32 %48, 3
  %50 = sext i32 %49 to i64
  %51 = getelementptr inbounds float, ptr %45, i64 %50
  store ptr %51, ptr %10, align 8
  %52 = load ptr, ptr %10, align 8
  %53 = load ptr, ptr %5, align 8
  %54 = getelementptr inbounds nuw %struct.par_shapes_mesh_s, ptr %53, i32 0, i32 0
  %55 = load ptr, ptr %54, align 8
  %56 = load i32, ptr %6, align 4
  %57 = add nsw i32 %56, 1
  %58 = mul nsw i32 %57, 3
  %59 = sext i32 %58 to i64
  %60 = getelementptr inbounds float, ptr %55, i64 %59
  %61 = load i32, ptr %6, align 4
  %62 = add nsw i32 %61, 1
  %63 = sext i32 %62 to i64
  %64 = mul i64 4, %63
  %65 = mul i64 %64, 3
  call void @llvm.memcpy.p0.p0.i64(ptr align 4 %52, ptr align 4 %60, i64 %65, i1 false)
  %66 = load ptr, ptr %4, align 8
  %67 = getelementptr inbounds nuw %struct.par_shapes_mesh_s, ptr %66, i32 0, i32 0
  %68 = load ptr, ptr %67, align 8
  call void @free(ptr noundef %68) #16
  %69 = load ptr, ptr %9, align 8
  %70 = load ptr, ptr %4, align 8
  %71 = getelementptr inbounds nuw %struct.par_shapes_mesh_s, ptr %70, i32 0, i32 0
  store ptr %69, ptr %71, align 8
  call void @llvm.lifetime.start.p0(i64 4, ptr %11) #16
  %72 = load ptr, ptr %4, align 8
  %73 = getelementptr inbounds nuw %struct.par_shapes_mesh_s, ptr %72, i32 0, i32 3
  %74 = load i32, ptr %73, align 8
  %75 = load i32, ptr %6, align 4
  %76 = mul nsw i32 2, %75
  %77 = load i32, ptr %7, align 4
  %78 = mul nsw i32 %76, %77
  %79 = add nsw i32 %74, %78
  store i32 %79, ptr %11, align 4
  call void @llvm.lifetime.start.p0(i64 8, ptr %12) #16
  %80 = load i32, ptr %11, align 4
  %81 = mul nsw i32 %80, 3
  %82 = sext i32 %81 to i64
  %83 = mul i64 %82, 2
  %84 = call noalias ptr @malloc(i64 noundef %83) #20
  store ptr %84, ptr %12, align 8
  %85 = load ptr, ptr %12, align 8
  %86 = load ptr, ptr %4, align 8
  %87 = getelementptr inbounds nuw %struct.par_shapes_mesh_s, ptr %86, i32 0, i32 2
  %88 = load ptr, ptr %87, align 8
  %89 = load ptr, ptr %4, align 8
  %90 = getelementptr inbounds nuw %struct.par_shapes_mesh_s, ptr %89, i32 0, i32 3
  %91 = load i32, ptr %90, align 8
  %92 = sext i32 %91 to i64
  %93 = mul i64 2, %92
  %94 = mul i64 %93, 3
  call void @llvm.memcpy.p0.p0.i64(ptr align 2 %85, ptr align 2 %88, i64 %94, i1 false)
  call void @llvm.lifetime.start.p0(i64 4, ptr %13) #16
  %95 = load ptr, ptr %4, align 8
  %96 = getelementptr inbounds nuw %struct.par_shapes_mesh_s, ptr %95, i32 0, i32 1
  %97 = load i32, ptr %96, align 8
  %98 = load i32, ptr %6, align 4
  %99 = add nsw i32 %98, 1
  %100 = sub nsw i32 %97, %99
  store i32 %100, ptr %13, align 4
  call void @llvm.lifetime.start.p0(i64 8, ptr %14) #16
  %101 = load ptr, ptr %12, align 8
  %102 = load ptr, ptr %4, align 8
  %103 = getelementptr inbounds nuw %struct.par_shapes_mesh_s, ptr %102, i32 0, i32 3
  %104 = load i32, ptr %103, align 8
  %105 = mul nsw i32 %104, 3
  %106 = sext i32 %105 to i64
  %107 = getelementptr inbounds i16, ptr %101, i64 %106
  store ptr %107, ptr %14, align 8
  call void @llvm.lifetime.start.p0(i64 4, ptr %15) #16
  store i32 0, ptr %15, align 4
  br label %108

108:                                              ; preds = %175, %3
  %109 = load i32, ptr %15, align 4
  %110 = load i32, ptr %7, align 4
  %111 = icmp slt i32 %109, %110
  br i1 %111, label %113, label %112

112:                                              ; preds = %108
  store i32 2, ptr %16, align 4
  call void @llvm.lifetime.end.p0(i64 4, ptr %15) #16
  br label %178

113:                                              ; preds = %108
  call void @llvm.lifetime.start.p0(i64 4, ptr %17) #16
  store i32 0, ptr %17, align 4
  br label %114

114:                                              ; preds = %167, %113
  %115 = load i32, ptr %17, align 4
  %116 = load i32, ptr %6, align 4
  %117 = icmp slt i32 %115, %116
  br i1 %117, label %119, label %118

118:                                              ; preds = %114
  store i32 5, ptr %16, align 4
  call void @llvm.lifetime.end.p0(i64 4, ptr %17) #16
  br label %170

119:                                              ; preds = %114
  call void @llvm.lifetime.start.p0(i64 4, ptr %18) #16
  %120 = load i32, ptr %17, align 4
  %121 = add nsw i32 %120, 1
  store i32 %121, ptr %18, align 4
  %122 = load i32, ptr %13, align 4
  %123 = load i32, ptr %17, align 4
  %124 = add nsw i32 %122, %123
  %125 = load i32, ptr %6, align 4
  %126 = add nsw i32 %124, %125
  %127 = add nsw i32 %126, 1
  %128 = trunc i32 %127 to i16
  %129 = load ptr, ptr %14, align 8
  %130 = getelementptr inbounds nuw i16, ptr %129, i32 1
  store ptr %130, ptr %14, align 8
  store i16 %128, ptr %129, align 2
  %131 = load i32, ptr %13, align 4
  %132 = load i32, ptr %18, align 4
  %133 = add nsw i32 %131, %132
  %134 = trunc i32 %133 to i16
  %135 = load ptr, ptr %14, align 8
  %136 = getelementptr inbounds nuw i16, ptr %135, i32 1
  store ptr %136, ptr %14, align 8
  store i16 %134, ptr %135, align 2
  %137 = load i32, ptr %13, align 4
  %138 = load i32, ptr %17, align 4
  %139 = add nsw i32 %137, %138
  %140 = trunc i32 %139 to i16
  %141 = load ptr, ptr %14, align 8
  %142 = getelementptr inbounds nuw i16, ptr %141, i32 1
  store ptr %142, ptr %14, align 8
  store i16 %140, ptr %141, align 2
  %143 = load i32, ptr %13, align 4
  %144 = load i32, ptr %17, align 4
  %145 = add nsw i32 %143, %144
  %146 = load i32, ptr %6, align 4
  %147 = add nsw i32 %145, %146
  %148 = add nsw i32 %147, 1
  %149 = trunc i32 %148 to i16
  %150 = load ptr, ptr %14, align 8
  %151 = getelementptr inbounds nuw i16, ptr %150, i32 1
  store ptr %151, ptr %14, align 8
  store i16 %149, ptr %150, align 2
  %152 = load i32, ptr %13, align 4
  %153 = load i32, ptr %18, align 4
  %154 = add nsw i32 %152, %153
  %155 = load i32, ptr %6, align 4
  %156 = add nsw i32 %154, %155
  %157 = add nsw i32 %156, 1
  %158 = trunc i32 %157 to i16
  %159 = load ptr, ptr %14, align 8
  %160 = getelementptr inbounds nuw i16, ptr %159, i32 1
  store ptr %160, ptr %14, align 8
  store i16 %158, ptr %159, align 2
  %161 = load i32, ptr %13, align 4
  %162 = load i32, ptr %18, align 4
  %163 = add nsw i32 %161, %162
  %164 = trunc i32 %163 to i16
  %165 = load ptr, ptr %14, align 8
  %166 = getelementptr inbounds nuw i16, ptr %165, i32 1
  store ptr %166, ptr %14, align 8
  store i16 %164, ptr %165, align 2
  call void @llvm.lifetime.end.p0(i64 4, ptr %18) #16
  br label %167

167:                                              ; preds = %119
  %168 = load i32, ptr %17, align 4
  %169 = add nsw i32 %168, 1
  store i32 %169, ptr %17, align 4
  br label %114

170:                                              ; preds = %118
  %171 = load i32, ptr %6, align 4
  %172 = add nsw i32 %171, 1
  %173 = load i32, ptr %13, align 4
  %174 = add nsw i32 %173, %172
  store i32 %174, ptr %13, align 4
  br label %175

175:                                              ; preds = %170
  %176 = load i32, ptr %15, align 4
  %177 = add nsw i32 %176, 1
  store i32 %177, ptr %15, align 4
  br label %108

178:                                              ; preds = %112
  %179 = load ptr, ptr %4, align 8
  %180 = getelementptr inbounds nuw %struct.par_shapes_mesh_s, ptr %179, i32 0, i32 2
  %181 = load ptr, ptr %180, align 8
  call void @free(ptr noundef %181) #16
  %182 = load ptr, ptr %12, align 8
  %183 = load ptr, ptr %4, align 8
  %184 = getelementptr inbounds nuw %struct.par_shapes_mesh_s, ptr %183, i32 0, i32 2
  store ptr %182, ptr %184, align 8
  %185 = load i32, ptr %8, align 4
  %186 = load ptr, ptr %4, align 8
  %187 = getelementptr inbounds nuw %struct.par_shapes_mesh_s, ptr %186, i32 0, i32 1
  store i32 %185, ptr %187, align 8
  %188 = load i32, ptr %11, align 4
  %189 = load ptr, ptr %4, align 8
  %190 = getelementptr inbounds nuw %struct.par_shapes_mesh_s, ptr %189, i32 0, i32 3
  store i32 %188, ptr %190, align 8
  call void @llvm.lifetime.end.p0(i64 8, ptr %14) #16
  call void @llvm.lifetime.end.p0(i64 4, ptr %13) #16
  call void @llvm.lifetime.end.p0(i64 8, ptr %12) #16
  call void @llvm.lifetime.end.p0(i64 4, ptr %11) #16
  call void @llvm.lifetime.end.p0(i64 8, ptr %10) #16
  call void @llvm.lifetime.end.p0(i64 8, ptr %9) #16
  call void @llvm.lifetime.end.p0(i64 4, ptr %8) #16
  call void @llvm.lifetime.end.p0(i64 4, ptr %7) #16
  ret void
}