; Function Attrs: nounwind uwtable
define hidden void @par_shapes__connect(ptr noundef captures(none) %0, ptr noundef readonly captures(none) %1, i32 noundef %2) local_unnamed_addr #0 {
  %4 = add i32 %2, 1
  %5 = getelementptr inbounds nuw i8, ptr %0, i64 8
  %6 = load i32, ptr %5, align 8
  %7 = add nsw i32 %6, %4
  %8 = mul nsw i32 %7, 3
  %9 = sext i32 %8 to i64
  %10 = shl nsw i64 %9, 2
  %11 = tail call noalias ptr @malloc(i64 noundef %10) #59
  %12 = load ptr, ptr %0, align 8
  %13 = sext i32 %6 to i64
  %14 = mul nsw i64 %13, 12
  tail call void @llvm.memcpy.p0.p0.i64(ptr align 4 %11, ptr align 4 %12, i64 %14, i1 false)
  %15 = mul nsw i32 %6, 3
  %16 = sext i32 %15 to i64
  %17 = getelementptr inbounds float, ptr %11, i64 %16
  %18 = load ptr, ptr %1, align 8
  %19 = mul nsw i32 %4, 3
  %20 = sext i32 %19 to i64
  %21 = getelementptr inbounds float, ptr %18, i64 %20
  %22 = sext i32 %4 to i64
  %23 = mul nsw i64 %22, 12
  tail call void @llvm.memcpy.p0.p0.i64(ptr align 4 %17, ptr align 4 %21, i64 %23, i1 false)
  tail call void @free(ptr noundef %12) #57
  store ptr %11, ptr %0, align 8
  %24 = getelementptr inbounds nuw i8, ptr %0, i64 24
  %25 = load i32, ptr %24, align 8
  %26 = shl nsw i32 %2, 1
  %27 = add nsw i32 %25, %26
  %28 = mul nsw i32 %27, 3
  %29 = sext i32 %28 to i64
  %30 = shl nsw i64 %29, 1
  %31 = tail call noalias ptr @malloc(i64 noundef %30) #59
  %32 = getelementptr inbounds nuw i8, ptr %0, i64 16
  %33 = load ptr, ptr %32, align 8
  %34 = sext i32 %25 to i64
  %35 = mul nsw i64 %34, 6
  tail call void @llvm.memcpy.p0.p0.i64(ptr align 2 %31, ptr align 2 %33, i64 %35, i1 false)
  %36 = load i32, ptr %5, align 8
  %37 = sub nsw i32 %36, %4
  %38 = icmp sgt i32 %2, 0
  br i1 %38, label %.preheader.us, label %._crit_edge.us

.preheader.us:                                    ; preds = %3
  %39 = mul nsw i32 %25, 3
  %40 = sext i32 %39 to i64
  %41 = getelementptr inbounds i16, ptr %31, i64 %40
  %invariant.op.us = add i32 %37, %2
  %invariant.op68.us = add i32 %37, 1
  br label %42

42:                                               ; preds = %.preheader.us, %42
  %.073.us = phi i32 [ 0, %.preheader.us ], [ %43, %42 ]
  %.172.us = phi ptr [ %41, %.preheader.us ], [ %56, %42 ]
  %43 = add nuw nsw i32 %.073.us, 1
  %44 = add nsw i32 %.073.us, %37
  %.reass.us = add i32 %.073.us, %invariant.op.us
  %45 = trunc i32 %.reass.us to i16
  %46 = add i16 %45, 1
  %47 = getelementptr inbounds nuw i8, ptr %.172.us, i64 2
  store i16 %46, ptr %.172.us, align 2
  %.reass69.us = add i32 %.073.us, %invariant.op68.us
  %48 = trunc i32 %.reass69.us to i16
  %49 = getelementptr inbounds nuw i8, ptr %.172.us, i64 4
  store i16 %48, ptr %47, align 2
  %50 = trunc i32 %44 to i16
  %51 = getelementptr inbounds nuw i8, ptr %.172.us, i64 6
  store i16 %50, ptr %49, align 2
  %52 = getelementptr inbounds nuw i8, ptr %.172.us, i64 8
  store i16 %46, ptr %51, align 2
  %.reass71.us = add i32 %.073.us, %36
  %53 = trunc i32 %.reass71.us to i16
  %54 = add i16 %53, 1
  %55 = getelementptr inbounds nuw i8, ptr %.172.us, i64 10
  store i16 %54, ptr %52, align 2
  %56 = getelementptr inbounds nuw i8, ptr %.172.us, i64 12
  store i16 %48, ptr %55, align 2
  %exitcond.not = icmp eq i32 %43, %2
  br i1 %exitcond.not, label %._crit_edge.us, label %42

._crit_edge.us:                                   ; preds = %42, %3
  tail call void @free(ptr noundef %33) #57
  store ptr %31, ptr %32, align 8
  store i32 %7, ptr %5, align 8
  store i32 %27, ptr %24, align 8
  ret void
}